Certificate:
    Data:
        Version: 3 (0x2)
        Serial Number: 1 (0x1)
    Signature Algorithm: sha1WithRSAEncryption
        Issuer: C=CN, ST=BeiJing, L=BeiJing, O=MyOrganization, OU=MyUnit, CN=CA-Common-Name/emailAddress=lx1036@example.com
        Validity
            Not Before: Feb  3 04:39:48 2020 GMT
            Not After : Jan 31 04:39:48 2030 GMT
        Subject: C=CN, ST=BeiJing, O=MyOrganization, OU=MyUnit, CN=*.docker-client.helloworld.com/emailAddress=docker-client-email@helloworld.com
        Subject Public Key Info:
            Public Key Algorithm: rsaEncryption
                Public-Key: (2048 bit)
                Modulus:
                    00:b1:b4:69:d0:53:8f:ae:40:35:35:35:eb:b2:bc:
                    17:83:49:12:18:49:6f:6b:36:da:7e:68:00:b1:14:
                    90:de:a9:e2:25:fa:da:cb:ed:24:27:0e:8b:c9:d5:
                    7c:8a:b0:7c:98:40:0e:19:18:ca:f6:f0:5c:e4:04:
                    c8:48:2e:74:13:d0:ed:b8:50:f1:63:fb:06:fb:54:
                    69:e7:2f:7c:02:4b:83:1a:45:5a:86:19:0d:05:b2:
                    58:75:59:b1:df:d9:5f:a6:b1:11:9c:5a:4f:8f:c5:
                    b5:5c:da:5b:2d:6e:ad:db:0f:13:56:8f:ab:6f:d1:
                    b9:79:12:c5:49:49:94:98:ba:d8:80:a1:2b:92:41:
                    f8:22:e5:f4:e4:26:d6:80:ab:f5:ed:3a:c4:7f:c2:
                    51:a2:32:c7:95:a8:01:2a:f0:4e:1d:ae:45:a2:b1:
                    a1:f8:af:2f:40:76:03:82:49:7d:39:31:22:b8:41:
                    0e:85:07:3e:98:50:b9:0f:09:14:1a:b0:23:b1:5c:
                    68:3d:91:c0:8e:b9:14:93:f8:7c:0c:3e:3a:a5:90:
                    1f:36:b6:00:3c:78:c1:7f:8d:a1:74:1e:6c:fc:89:
                    28:bb:9f:60:5d:b5:af:fb:a2:d3:45:37:ff:db:d3:
                    b7:08:9a:bb:5e:85:26:cd:80:1a:84:26:72:9c:b7:
                    f2:53
                Exponent: 65537 (0x10001)
        X509v3 extensions:
            X509v3 Basic Constraints: 
                CA:FALSE
            X509v3 Key Usage: 
                Digital Signature, Non Repudiation, Key Encipherment
            X509v3 Subject Alternative Name: 
                DNS:*.rodney.com, IP Address:192.168.64.2, IP Address:192.168.64.3, IP Address:192.168.64.5
    Signature Algorithm: sha1WithRSAEncryption
         2c:24:96:ae:ce:e4:e4:f4:86:f0:4d:6d:e3:0b:b9:b6:9c:b5:
         6f:05:f4:f5:61:35:47:08:2f:5f:0e:2d:3d:39:e2:09:55:b0:
         ba:41:90:c5:90:fc:89:63:9f:c4:0f:62:35:3b:55:e7:8c:c6:
         06:4f:8d:46:d7:cf:ab:3d:21:a5:c8:a3:01:7f:77:1b:b7:45:
         84:67:70:3e:0a:ec:01:c3:20:cc:61:48:fc:72:bf:f0:43:82:
         00:8b:68:f8:9d:87:ec:5b:43:9d:5f:96:a9:3e:9b:04:f1:c4:
         c9:ec:c4:ae:4f:c3:a8:3a:a9:0b:ab:56:79:b3:f4:85:6b:f7:
         87:97:55:bb:18:d0:9d:7d:32:20:cc:82:51:b9:17:ed:de:93:
         7e:a1:93:3e:57:bf:9b:82:d9:2c:b1:ae:38:94:75:47:5a:f3:
         9c:8f:00:72:11:72:74:95:e2:b7:3f:48:2f:37:22:c0:1a:87:
         5b:3d:e9:52:15:e4:3a:77:e0:35:18:c7:4f:99:79:ff:f8:4b:
         66:28:3f:4a:e1:32:8e:78:2a:ae:e3:45:72:6c:a6:1a:d7:16:
         f9:b1:01:42:25:7a:a7:fb:75:1c:10:7b:69:47:2d:9a:e8:9b:
         9c:4c:44:27:21:63:fa:de:8b:ad:59:c8:76:cc:5b:87:14:23:
         64:5b:c4:bf
-----BEGIN CERTIFICATE-----
MIID/jCCAuagAwIBAgIBATANBgkqhkiG9w0BAQUFADCBlzELMAkGA1UEBhMCQ04x
EDAOBgNVBAgMB0JlaUppbmcxEDAOBgNVBAcMB0JlaUppbmcxFzAVBgNVBAoMDk15
T3JnYW5pemF0aW9uMQ8wDQYDVQQLDAZNeVVuaXQxFzAVBgNVBAMMDkNBLUNvbW1v
bi1OYW1lMSEwHwYJKoZIhvcNAQkBFhJseDEwMzZAZXhhbXBsZS5jb20wHhcNMjAw
MjAzMDQzOTQ4WhcNMzAwMTMxMDQzOTQ4WjCBpTELMAkGA1UEBhMCQ04xEDAOBgNV
BAgMB0JlaUppbmcxFzAVBgNVBAoMDk15T3JnYW5pemF0aW9uMQ8wDQYDVQQLDAZN
eVVuaXQxJzAlBgNVBAMMHiouZG9ja2VyLWNsaWVudC5oZWxsb3dvcmxkLmNvbTEx
MC8GCSqGSIb3DQEJARYiZG9ja2VyLWNsaWVudC1lbWFpbEBoZWxsb3dvcmxkLmNv
bTCCASIwDQYJKoZIhvcNAQEBBQADggEPADCCAQoCggEBALG0adBTj65ANTU167K8
F4NJEhhJb2s22n5oALEUkN6p4iX62svtJCcOi8nVfIqwfJhADhkYyvbwXOQEyEgu
dBPQ7bhQ8WP7BvtUaecvfAJLgxpFWoYZDQWyWHVZsd/ZX6axEZxaT4/FtVzaWy1u
rdsPE1aPq2/RuXkSxUlJlJi62IChK5JB+CLl9OQm1oCr9e06xH/CUaIyx5WoASrw
Th2uRaKxofivL0B2A4JJfTkxIrhBDoUHPphQuQ8JFBqwI7FcaD2RwI65FJP4fAw+
OqWQHza2ADx4wX+NoXQebPyJKLufYF21r/ui00U3/9vTtwiau16FJs2AGoQmcpy3
8lMCAwEAAaNFMEMwCQYDVR0TBAIwADALBgNVHQ8EBAMCBeAwKQYDVR0RBCIwIIIM
Ki5yb2RuZXkuY29thwTAqEAChwTAqEADhwTAqEAFMA0GCSqGSIb3DQEBBQUAA4IB
AQAsJJauzuTk9IbwTW3jC7m2nLVvBfT1YTVHCC9fDi09OeIJVbC6QZDFkPyJY5/E
D2I1O1XnjMYGT41G18+rPSGlyKMBf3cbt0WEZ3A+CuwBwyDMYUj8cr/wQ4IAi2j4
nYfsW0OdX5apPpsE8cTJ7MSuT8OoOqkLq1Z5s/SFa/eHl1W7GNCdfTIgzIJRuRft
3pN+oZM+V7+bgtkssa44lHVHWvOcjwByEXJ0leK3P0gvNyLAGodbPelSFeQ6d+A1
GMdPmXn/+EtmKD9K4TKOeCqu40VybKYa1xb5sQFCJXqn+3UcEHtpRy2a6JucTEQn
IWP63outWch2zFuHFCNkW8S/
-----END CERTIFICATE-----
