Certificate:
    Data:
        Version: 3 (0x2)
        Serial Number: 0 (0x0)
    Signature Algorithm: sha1WithRSAEncryption
        Issuer: C=CN, ST=BeiJing, L=BeiJing, O=MyOrganization, OU=MyUnit, CN=CA-Common-Name/emailAddress=lx1036@example.com
        Validity
            Not Before: Feb  3 04:34:53 2020 GMT
            Not After : Jan 31 04:34:53 2030 GMT
        Subject: C=CN, ST=BeiJing, O=MyOrganization, OU=MyUniy, CN=*.docker-server.helloworld.com/emailAddress=docker-server-email@helloworld.com
        Subject Public Key Info:
            Public Key Algorithm: rsaEncryption
                Public-Key: (2048 bit)
                Modulus:
                    00:b8:c9:ab:0f:33:dc:4e:e5:8e:75:f7:9a:15:a6:
                    fb:69:3b:56:f8:e4:3c:2f:50:63:35:b8:85:8c:c6:
                    6f:f9:ab:ee:dd:11:f3:d7:b0:ba:ce:84:61:33:23:
                    22:25:c8:1d:3a:75:62:5d:e4:b5:c3:f2:4c:c9:33:
                    1f:a6:6c:3b:73:57:2b:c8:b0:d2:89:a9:94:32:a7:
                    52:e2:46:bb:b9:29:54:67:f4:f4:6c:e6:ae:61:89:
                    e8:e1:d4:4f:a2:72:39:e5:27:18:0a:86:b1:43:fa:
                    43:15:ee:bb:ac:d8:e0:d5:94:e2:18:a5:f0:2c:89:
                    ea:84:7a:85:ac:c4:43:a0:e2:17:4d:0c:f8:f8:af:
                    47:c5:ea:29:5e:b4:a4:52:3c:1f:1d:b1:a0:be:9b:
                    dd:fa:68:62:a2:f1:e3:e6:7f:81:83:38:a1:e3:21:
                    84:11:29:ab:03:3e:5b:11:19:05:4b:9b:6e:2b:0e:
                    81:a8:75:24:56:19:6d:0b:8c:cf:0d:28:cc:aa:67:
                    37:68:75:71:3d:80:1c:be:b8:e0:df:d4:aa:ed:00:
                    fd:46:44:aa:b0:4a:45:52:8c:b1:53:b5:36:fd:9f:
                    2c:5c:43:04:04:ee:9a:eb:a3:69:16:6a:cd:62:7c:
                    3b:cf:49:fd:4f:ce:56:79:3e:f0:51:03:ff:4a:53:
                    0e:ed
                Exponent: 65537 (0x10001)
        X509v3 extensions:
            X509v3 Basic Constraints: 
                CA:FALSE
            X509v3 Key Usage: 
                Digital Signature, Non Repudiation, Key Encipherment
            X509v3 Subject Alternative Name: 
                DNS:*.rodney.com, IP Address:192.168.64.2, IP Address:192.168.64.3, IP Address:192.168.64.5
    Signature Algorithm: sha1WithRSAEncryption
         84:e1:98:cf:43:e4:1e:3e:35:48:ce:1d:dd:08:4d:a4:87:23:
         cd:fc:aa:17:a5:e8:a9:3c:11:85:37:10:f6:84:be:84:5c:99:
         a8:d9:ff:cd:63:58:a4:70:4e:71:b3:5d:d1:73:0e:01:49:3b:
         fb:b6:11:04:de:db:7d:a3:d7:2c:41:11:e5:55:be:6a:83:c5:
         e8:7f:60:32:5c:72:33:a6:29:f4:45:bf:b3:f4:05:b5:9f:4f:
         34:d9:54:11:4a:0d:45:44:94:45:90:6b:16:81:18:96:cc:07:
         c9:ff:a6:c0:27:3e:a8:ca:c0:d8:40:46:7c:78:32:38:8a:5e:
         68:1c:68:bc:8f:42:3d:17:56:9c:d4:5d:96:3e:53:3c:90:3e:
         e2:80:c5:64:92:c0:55:77:6d:1a:18:f6:2b:40:8f:0e:d2:51:
         a9:70:66:9c:07:36:12:f6:63:ee:41:42:35:3c:41:a9:17:7e:
         ab:9a:ae:ae:e3:b5:19:34:7e:b7:b6:8a:a8:29:4f:da:08:f0:
         31:31:98:99:07:0b:5a:c3:26:6d:fb:23:9a:b3:b8:98:c1:be:
         f9:ee:7b:b2:21:64:a2:22:eb:05:c3:28:6a:a1:47:25:9b:13:
         94:e8:de:59:6b:7a:ad:08:56:6b:de:e7:e2:d1:60:a6:e6:f1:
         14:8e:7d:14
-----BEGIN CERTIFICATE-----
MIID/jCCAuagAwIBAgIBADANBgkqhkiG9w0BAQUFADCBlzELMAkGA1UEBhMCQ04x
EDAOBgNVBAgMB0JlaUppbmcxEDAOBgNVBAcMB0JlaUppbmcxFzAVBgNVBAoMDk15
T3JnYW5pemF0aW9uMQ8wDQYDVQQLDAZNeVVuaXQxFzAVBgNVBAMMDkNBLUNvbW1v
bi1OYW1lMSEwHwYJKoZIhvcNAQkBFhJseDEwMzZAZXhhbXBsZS5jb20wHhcNMjAw
MjAzMDQzNDUzWhcNMzAwMTMxMDQzNDUzWjCBpTELMAkGA1UEBhMCQ04xEDAOBgNV
BAgMB0JlaUppbmcxFzAVBgNVBAoMDk15T3JnYW5pemF0aW9uMQ8wDQYDVQQLDAZN
eVVuaXkxJzAlBgNVBAMMHiouZG9ja2VyLXNlcnZlci5oZWxsb3dvcmxkLmNvbTEx
MC8GCSqGSIb3DQEJARYiZG9ja2VyLXNlcnZlci1lbWFpbEBoZWxsb3dvcmxkLmNv
bTCCASIwDQYJKoZIhvcNAQEBBQADggEPADCCAQoCggEBALjJqw8z3E7ljnX3mhWm
+2k7VvjkPC9QYzW4hYzGb/mr7t0R89ewus6EYTMjIiXIHTp1Yl3ktcPyTMkzH6Zs
O3NXK8iw0omplDKnUuJGu7kpVGf09GzmrmGJ6OHUT6JyOeUnGAqGsUP6QxXuu6zY
4NWU4hil8CyJ6oR6hazEQ6DiF00M+PivR8XqKV60pFI8Hx2xoL6b3fpoYqLx4+Z/
gYM4oeMhhBEpqwM+WxEZBUubbisOgah1JFYZbQuMzw0ozKpnN2h1cT2AHL644N/U
qu0A/UZEqrBKRVKMsVO1Nv2fLFxDBATumuujaRZqzWJ8O89J/U/OVnk+8FED/0pT
Du0CAwEAAaNFMEMwCQYDVR0TBAIwADALBgNVHQ8EBAMCBeAwKQYDVR0RBCIwIIIM
Ki5yb2RuZXkuY29thwTAqEAChwTAqEADhwTAqEAFMA0GCSqGSIb3DQEBBQUAA4IB
AQCE4ZjPQ+QePjVIzh3dCE2khyPN/KoXpeipPBGFNxD2hL6EXJmo2f/NY1ikcE5x
s13Rcw4BSTv7thEE3tt9o9csQRHlVb5qg8Xof2AyXHIzpin0Rb+z9AW1n0802VQR
Sg1FRJRFkGsWgRiWzAfJ/6bAJz6oysDYQEZ8eDI4il5oHGi8j0I9F1ac1F2WPlM8
kD7igMVkksBVd20aGPYrQI8O0lGpcGacBzYS9mPuQUI1PEGpF36rmq6u47UZNH63
toqoKU/aCPAxMZiZBwtawyZt+yOas7iYwb757nuyIWSiIusFwyhqoUclmxOU6N5Z
a3qtCFZr3ufi0WCm5vEUjn0U
-----END CERTIFICATE-----
